; Function Attrs: nounwind uwtable
define ptr @Aig_ManDupNodes(ptr noundef %0, ptr noundef readonly captures(none) %1) local_unnamed_addr #0 {
  %3 = getelementptr i8, ptr %1, i64 4
  %.val45 = load i32, ptr %3, align 4, !tbaa !21
  %4 = icmp eq i32 %.val45, 0
  br i1 %4, label %82, label %5

5:                                                ; preds = %2
  %6 = getelementptr i8, ptr %1, i64 8
  %.val55 = load ptr, ptr %6, align 8, !tbaa !36
  %7 = tail call ptr @Aig_ManDfsNodes(ptr noundef %0, ptr noundef %.val55, i32 noundef %.val45) #11
  %8 = tail call ptr @Aig_ManStart(i32 noundef 10000) #11
  %9 = load ptr, ptr %0, align 8, !tbaa !23
  %.not.i = icmp eq ptr %9, null
  br i1 %.not.i, label %Abc_UtilStrsav.exit, label %10

10:                                               ; preds = %5
  %11 = tail call i64 @strlen(ptr noundef nonnull readonly dereferenceable(1) %9) #12
  %12 = add i64 %11, 1
  %13 = tail call noalias ptr @malloc(i64 noundef %12) #13
  %14 = tail call ptr @strcpy(ptr noundef nonnull dereferenceable(1) %13, ptr noundef nonnull readonly dereferenceable(1) %9) #11
  br label %Abc_UtilStrsav.exit

Abc_UtilStrsav.exit:                              ; preds = %5, %10
  %15 = phi ptr [ %13, %10 ], [ null, %5 ]
  store ptr %15, ptr %8, align 8, !tbaa !23
  %16 = getelementptr i8, ptr %8, i64 48
  %.val47 = load ptr, ptr %16, align 8, !tbaa !33
  %17 = getelementptr i8, ptr %0, i64 48
  %.val46 = load ptr, ptr %17, align 8, !tbaa !33
  %18 = getelementptr inbounds nuw i8, ptr %.val46, i64 40
  store ptr %.val47, ptr %18, align 8, !tbaa !34
  %19 = getelementptr i8, ptr %7, i64 4
  %.val4359 = load i32, ptr %19, align 4, !tbaa !21
  %20 = icmp sgt i32 %.val4359, 0
  br i1 %20, label %.lr.ph, label %.critedge2.preheader

.lr.ph:                                           ; preds = %Abc_UtilStrsav.exit
  %21 = getelementptr i8, ptr %7, i64 8
  br label %24

.critedge.preheader:                              ; preds = %32
  %22 = icmp sgt i32 %.val43, 0
  br i1 %22, label %.lr.ph63, label %.critedge2.preheader

.lr.ph63:                                         ; preds = %.critedge.preheader
  %23 = getelementptr i8, ptr %7, i64 8
  br label %36

24:                                               ; preds = %.lr.ph, %32
  %.val4375 = phi i32 [ %.val4359, %.lr.ph ], [ %.val43, %32 ]
  %indvars.iv = phi i64 [ 0, %.lr.ph ], [ %indvars.iv.next, %32 ]
  %.val50 = load ptr, ptr %21, align 8, !tbaa !36
  %25 = getelementptr inbounds nuw ptr, ptr %.val50, i64 %indvars.iv
  %26 = load ptr, ptr %25, align 8, !tbaa !37
  %27 = getelementptr i8, ptr %26, i64 24
  %.val54 = load i64, ptr %27, align 8
  %28 = and i64 %.val54, 7
  %.not = icmp eq i64 %28, 2
  br i1 %.not, label %29, label %32

29:                                               ; preds = %24
  %30 = tail call ptr @Aig_ObjCreateCi(ptr noundef nonnull %8) #11
  %31 = getelementptr inbounds nuw i8, ptr %26, i64 40
  store ptr %30, ptr %31, align 8, !tbaa !34
  %.val43.pre = load i32, ptr %19, align 4, !tbaa !21
  br label %32

32:                                               ; preds = %24, %29
  %.val43 = phi i32 [ %.val4375, %24 ], [ %.val43.pre, %29 ]
  %indvars.iv.next = add nuw nsw i64 %indvars.iv, 1
  %33 = sext i32 %.val43 to i64
  %34 = icmp slt i64 %indvars.iv.next, %33
  br i1 %34, label %24, label %.critedge.preheader, !llvm.loop !107

.critedge2.preheader:                             ; preds = %.critedge, %Abc_UtilStrsav.exit, %.critedge.preheader
  %.val64 = load i32, ptr %3, align 4, !tbaa !21
  %35 = icmp sgt i32 %.val64, 0
  br i1 %35, label %.critedge2, label %.critedge4

36:                                               ; preds = %.lr.ph63, %.critedge
  %.val4278 = phi i32 [ %.val43, %.lr.ph63 ], [ %.val42, %.critedge ]
  %indvars.iv69 = phi i64 [ 0, %.lr.ph63 ], [ %indvars.iv.next70, %.critedge ]
  %.val49 = load ptr, ptr %23, align 8, !tbaa !36
  %37 = getelementptr inbounds nuw ptr, ptr %.val49, i64 %indvars.iv69
  %38 = load ptr, ptr %37, align 8, !tbaa !37
  %39 = getelementptr i8, ptr %38, i64 24
  %.val52 = load i64, ptr %39, align 8
  %40 = trunc i64 %.val52 to i32
  %41 = and i32 %40, 7
  %42 = add nsw i32 %41, -7
  %narrow.i = icmp ult i32 %42, -2
  br i1 %narrow.i, label %.critedge, label %43

43:                                               ; preds = %36
  %44 = getelementptr i8, ptr %38, i64 8
  %.val51 = load ptr, ptr %44, align 8, !tbaa !41
  %45 = ptrtoint ptr %.val51 to i64
  %46 = and i64 %45, -2
  %.not.i56 = icmp eq i64 %46, 0
  br i1 %.not.i56, label %Aig_ObjChild0Copy.exit, label %47

47:                                               ; preds = %43
  %48 = inttoptr i64 %46 to ptr
  %49 = getelementptr inbounds nuw i8, ptr %48, i64 40
  %50 = load ptr, ptr %49, align 8, !tbaa !34
  %51 = and i64 %45, 1
  %52 = ptrtoint ptr %50 to i64
  %53 = xor i64 %51, %52
  %54 = inttoptr i64 %53 to ptr
  br label %Aig_ObjChild0Copy.exit

Aig_ObjChild0Copy.exit:                           ; preds = %43, %47
  %55 = phi ptr [ %54, %47 ], [ null, %43 ]
  %56 = getelementptr i8, ptr %38, i64 16
  %.val53 = load ptr, ptr %56, align 8, !tbaa !42
  %57 = ptrtoint ptr %.val53 to i64
  %58 = and i64 %57, -2
  %.not.i57 = icmp eq i64 %58, 0
  br i1 %.not.i57, label %Aig_ObjChild1Copy.exit, label %59

59:                                               ; preds = %Aig_ObjChild0Copy.exit
  %60 = inttoptr i64 %58 to ptr
  %61 = getelementptr inbounds nuw i8, ptr %60, i64 40
  %62 = load ptr, ptr %61, align 8, !tbaa !34
  %63 = and i64 %57, 1
  %64 = ptrtoint ptr %62 to i64
  %65 = xor i64 %63, %64
  %66 = inttoptr i64 %65 to ptr
  br label %Aig_ObjChild1Copy.exit

Aig_ObjChild1Copy.exit:                           ; preds = %Aig_ObjChild0Copy.exit, %59
  %67 = phi ptr [ %66, %59 ], [ null, %Aig_ObjChild0Copy.exit ]
  %68 = tail call ptr @Aig_And(ptr noundef nonnull %8, ptr noundef %55, ptr noundef %67) #11
  %69 = getelementptr inbounds nuw i8, ptr %38, i64 40
  store ptr %68, ptr %69, align 8, !tbaa !34
  %.val42.pre = load i32, ptr %19, align 4, !tbaa !21
  br label %.critedge

.critedge:                                        ; preds = %36, %Aig_ObjChild1Copy.exit
  %.val42 = phi i32 [ %.val4278, %36 ], [ %.val42.pre, %Aig_ObjChild1Copy.exit ]
  %indvars.iv.next70 = add nuw nsw i64 %indvars.iv69, 1
  %70 = sext i32 %.val42 to i64
  %71 = icmp slt i64 %indvars.iv.next70, %70
  br i1 %71, label %36, label %.critedge2.preheader, !llvm.loop !108

.critedge2:                                       ; preds = %.critedge2.preheader, %.critedge2
  %indvars.iv72 = phi i64 [ %indvars.iv.next73, %.critedge2 ], [ 0, %.critedge2.preheader ]
  %.val48 = load ptr, ptr %6, align 8, !tbaa !36
  %72 = getelementptr inbounds nuw ptr, ptr %.val48, i64 %indvars.iv72
  %73 = load ptr, ptr %72, align 8, !tbaa !37
  %74 = getelementptr inbounds nuw i8, ptr %73, i64 40
  %75 = load ptr, ptr %74, align 8, !tbaa !34
  %76 = tail call ptr @Aig_ObjCreateCo(ptr noundef nonnull %8, ptr noundef %75) #11
  %indvars.iv.next73 = add nuw nsw i64 %indvars.iv72, 1
  %.val = load i32, ptr %3, align 4, !tbaa !21
  %77 = sext i32 %.val to i64
  %78 = icmp slt i64 %indvars.iv.next73, %77
  br i1 %78, label %.critedge2, label %.critedge4, !llvm.loop !109

.critedge4:                                       ; preds = %.critedge2, %.critedge2.preheader
  tail call void @Aig_ManSetRegNum(ptr noundef nonnull %8, i32 noundef 0) #11
  %79 = getelementptr inbounds nuw i8, ptr %7, i64 8
  %80 = load ptr, ptr %79, align 8, !tbaa !36
  %.not.i58 = icmp eq ptr %80, null
  br i1 %.not.i58, label %Vec_PtrFree.exit, label %81

81:                                               ; preds = %.critedge4
  tail call void @free(ptr noundef nonnull %80) #11
  br label %Vec_PtrFree.exit

Vec_PtrFree.exit:                                 ; preds = %.critedge4, %81
  tail call void @free(ptr noundef nonnull %7) #11
  br label %82

82:                                               ; preds = %2, %Vec_PtrFree.exit
  %.040 = phi ptr [ %8, %Vec_PtrFree.exit ], [ null, %2 ]
  ret ptr %.040
}